target datalayout = "e-m:e-p270:32:32-p271:32:32-p272:64:64-i64:64-i128:128-f80:128-n8:16:32:64-S128"
target triple = "x86_64-pc-linux-gnu"

%struct.AVFilterContext = type { ptr, ptr, ptr, ptr, ptr, i32, ptr, ptr, i32, ptr, ptr, i32, i32, ptr, ptr, ptr, ptr, i32, ptr, i32, i32 }
%struct.PaletteUseContext = type { ptr, %struct.FFFrameSync, [32768 x %struct.cache_node], [256 x %struct.color_node], [256 x i32], i32, i32, i32, i32, i32, ptr, i32, [64 x i32], i32, ptr, ptr, ptr, i32, i64 }
%struct.FFFrameSync = type { ptr, ptr, i32, %struct.AVRational, i64, ptr, ptr, i32, i32, i8, i8, ptr, i32, i32, i32, i32 }
%struct.AVRational = type { i32, i32 }
%struct.cache_node = type { ptr, i32 }
%struct.color_node = type { %struct.color_info, i8, i32, i32, i32 }
%struct.color_info = type { i32, [3 x i32] }

; Function Attrs: cold nounwind optsize uwtable
define internal void @uninit(ptr noundef %0) #0 {
  %2 = alloca ptr, align 8
  %3 = alloca ptr, align 8
  %4 = alloca i32, align 4
  store ptr %0, ptr %2, align 8, !tbaa !4
  call void @llvm.lifetime.start.p0(i64 8, ptr %3) #11
  %5 = load ptr, ptr %2, align 8, !tbaa !4
  %6 = getelementptr inbounds nuw %struct.AVFilterContext, ptr %5, i32 0, i32 9
  %7 = load ptr, ptr %6, align 8, !tbaa !9
  store ptr %7, ptr %3, align 8, !tbaa !22
  %8 = load ptr, ptr %3, align 8, !tbaa !22
  %9 = getelementptr inbounds nuw %struct.PaletteUseContext, ptr %8, i32 0, i32 1
  call void @ff_framesync_uninit(ptr noundef %9)
  call void @llvm.lifetime.start.p0(i64 4, ptr %4) #11
  store i32 0, ptr %4, align 4, !tbaa !36
  br label %10

10:                                               ; preds = %21, %1
  %11 = load i32, ptr %4, align 4, !tbaa !36
  %12 = icmp slt i32 %11, 32768
  br i1 %12, label %14, label %13

13:                                               ; preds = %10
  call void @llvm.lifetime.end.p0(i64 4, ptr %4) #11
  br label %24

14:                                               ; preds = %10
  %15 = load ptr, ptr %3, align 8, !tbaa !22
  %16 = getelementptr inbounds nuw %struct.PaletteUseContext, ptr %15, i32 0, i32 2
  %17 = load i32, ptr %4, align 4, !tbaa !36
  %18 = sext i32 %17 to i64
  %19 = getelementptr inbounds [32768 x %struct.cache_node], ptr %16, i64 0, i64 %18
  %20 = getelementptr inbounds nuw %struct.cache_node, ptr %19, i32 0, i32 0
  call void @av_freep(ptr noundef %20)
  br label %21

21:                                               ; preds = %14
  %22 = load i32, ptr %4, align 4, !tbaa !36
  %23 = add nsw i32 %22, 1
  store i32 %23, ptr %4, align 4, !tbaa !36
  br label %10, !llvm.loop !39

24:                                               ; preds = %13
  %25 = load ptr, ptr %3, align 8, !tbaa !22
  %26 = getelementptr inbounds nuw %struct.PaletteUseContext, ptr %25, i32 0, i32 14
  call void @av_frame_free(ptr noundef %26)
  %27 = load ptr, ptr %3, align 8, !tbaa !22
  %28 = getelementptr inbounds nuw %struct.PaletteUseContext, ptr %27, i32 0, i32 15
  call void @av_frame_free(ptr noundef %28)
  call void @llvm.lifetime.end.p0(i64 8, ptr %3) #11
  ret void
}