; Function Attrs: cold nounwind optsize uwtable
define internal void @uninit(ptr noundef readonly captures(none) %0) #0 {
  %2 = getelementptr inbounds nuw i8, ptr %0, i64 72
  %3 = load ptr, ptr %2, align 8, !tbaa !4
  %4 = getelementptr inbounds nuw i8, ptr %3, i64 8
  tail call void @ff_framesync_uninit(ptr noundef nonnull %4) #13
  %5 = getelementptr inbounds nuw i8, ptr %3, i64 104
  br label %9

6:                                                ; preds = %9
  %7 = getelementptr inbounds nuw i8, ptr %3, i64 533904
  tail call void @av_frame_free(ptr noundef nonnull %7) #13
  %8 = getelementptr inbounds nuw i8, ptr %3, i64 533912
  tail call void @av_frame_free(ptr noundef nonnull %8) #13
  ret void

9:                                                ; preds = %1, %9
  %indvars.iv = phi i64 [ 0, %1 ], [ %indvars.iv.next, %9 ]
  %10 = getelementptr inbounds nuw [32768 x %struct.cache_node], ptr %5, i64 0, i64 %indvars.iv
  tail call void @av_freep(ptr noundef nonnull %10) #13
  %indvars.iv.next = add nuw nsw i64 %indvars.iv, 1
  %exitcond.not = icmp eq i64 %indvars.iv.next, 32768
  br i1 %exitcond.not, label %6, label %9, !llvm.loop !36
}